ccopy_reg
_reconstructor
p0
(cpycparser.c_ast
Compound
p1
c__builtin__
object
p2
Ntp3
Rp4
(dp5
S'block_items'
p6
(lp7
g0
(cpycparser.c_ast
Decl
p8
g2
Ntp9
Rp10
(dp11
S'funcspec'
p12
(lp13
sS'name'
p14
S'__DEBUG_ID'
p15
sS'quals'
p16
(lp17
sS'storage'
p18
(lp19
sS'coord'
p20
g0
(cpycparser.plyparser
Coord
p21
g2
Ntp22
Rp23
(dp24
S'column'
p25
NsS'line'
p26
I5
sS'file'
p27
S'rubrics/fncn.c'
p28
sbsS'init'
p29
g0
(cpycparser.c_ast
Constant
p30
g2
Ntp31
Rp32
(dp33
S'type'
p34
S'int'
p35
sg20
g0
(g21
g2
Ntp36
Rp37
(dp38
g25
Nsg26
I5
sg27
g28
sbsS'value'
p39
S'0'
p40
sbsS'bitsize'
p41
Nsg34
g0
(cpycparser.c_ast
TypeDecl
p42
g2
Ntp43
Rp44
(dp45
g16
g17
sg34
g0
(cpycparser.c_ast
IdentifierType
p46
g2
Ntp47
Rp48
(dp49
S'names'
p50
(lp51
S'int'
p52
asg20
g0
(g21
g2
Ntp53
Rp54
(dp55
g25
Nsg26
I5
sg27
g28
sbsbsS'declname'
p56
g15
sg20
g23
sbsbag0
(cpycparser.c_ast
FuncCall
p57
g2
Ntp58
Rp59
(dp60
S'args'
p61
g0
(cpycparser.c_ast
ExprList
p62
g2
Ntp63
Rp64
(dp65
S'exprs'
p66
(lp67
g0
(cpycparser.c_ast
ID
p68
g2
Ntp69
Rp70
(dp71
g14
S'__DEBUG_FIFO'
p72
sg20
g0
(g21
g2
Ntp73
Rp74
(dp75
g25
Nsg26
I6
sg27
g28
sbsbag0
(cpycparser.c_ast
Cast
p76
g2
Ntp77
Rp78
(dp79
S'to_type'
p80
g0
(cpycparser.c_ast
Typename
p81
g2
Ntp82
Rp83
(dp84
g16
(lp85
S'const'
p86
asg34
g0
(cpycparser.c_ast
PtrDecl
p87
g2
Ntp88
Rp89
(dp90
g16
(lp91
sg34
g0
(g42
g2
Ntp92
Rp93
(dp94
g16
g85
sg34
g0
(g46
g2
Ntp95
Rp96
(dp97
g50
(lp98
S'void'
p99
asg20
g0
(g21
g2
Ntp100
Rp101
(dp102
g25
Nsg26
I6
sg27
g28
sbsbsg56
Nsg20
Nsbsg20
g0
(g21
g2
Ntp103
Rp104
(dp105
g25
Nsg26
I6
sg27
g28
sbsbsg14
Nsg20
g0
(g21
g2
Ntp106
Rp107
(dp108
g25
Nsg26
I0
sg27
g28
sbsbsg20
g0
(g21
g2
Ntp109
Rp110
(dp111
g25
Nsg26
I6
sg27
g28
sbsS'expr'
p112
g0
(cpycparser.c_ast
UnaryOp
p113
g2
Ntp114
Rp115
(dp116
g112
g0
(g68
g2
Ntp117
Rp118
(dp119
g14
S'__DEBUG_ID'
p120
sg20
g0
(g21
g2
Ntp121
Rp122
(dp123
g25
Nsg26
I6
sg27
g28
sbsbsg20
g122
sS'op'
p124
S'&'
p125
sbsbag0
(g113
g2
Ntp126
Rp127
(dp128
g112
g0
(g68
g2
Ntp129
Rp130
(dp131
g14
S'__DEBUG_ID'
p132
sg20
g0
(g21
g2
Ntp133
Rp134
(dp135
g25
Nsg26
I6
sg27
g28
sbsbsg20
g0
(g21
g2
Ntp136
Rp137
(dp138
g25
Nsg26
I6
sg27
g28
sbsg124
S'sizeof'
p139
sbasg20
g74
sbsg14
g0
(g68
g2
Ntp140
Rp141
(dp142
g14
S'write'
p143
sg20
g0
(g21
g2
Ntp144
Rp145
(dp146
g25
Nsg26
I6
sg27
g28
sbsbsg20
g145
sbag0
(g57
g2
Ntp147
Rp148
(dp149
g61
g0
(g62
g2
Ntp150
Rp151
(dp152
g66
(lp153
g0
(g68
g2
Ntp154
Rp155
(dp156
g14
S'__DEBUG_FIFO'
p157
sg20
g0
(g21
g2
Ntp158
Rp159
(dp160
g25
Nsg26
I7
sg27
g28
sbsbag0
(g76
g2
Ntp161
Rp162
(dp163
g80
g0
(g81
g2
Ntp164
Rp165
(dp166
g16
(lp167
S'const'
p168
asg34
g0
(g87
g2
Ntp169
Rp170
(dp171
g16
(lp172
sg34
g0
(g42
g2
Ntp173
Rp174
(dp175
g16
g167
sg34
g0
(g46
g2
Ntp176
Rp177
(dp178
g50
(lp179
S'void'
p180
asg20
g0
(g21
g2
Ntp181
Rp182
(dp183
g25
Nsg26
I7
sg27
g28
sbsbsg56
Nsg20
Nsbsg20
g0
(g21
g2
Ntp184
Rp185
(dp186
g25
Nsg26
I7
sg27
g28
sbsbsg14
Nsg20
g0
(g21
g2
Ntp187
Rp188
(dp189
g25
Nsg26
I0
sg27
g28
sbsbsg20
g0
(g21
g2
Ntp190
Rp191
(dp192
g25
Nsg26
I7
sg27
g28
sbsg112
g0
(g113
g2
Ntp193
Rp194
(dp195
g112
g0
(g68
g2
Ntp196
Rp197
(dp198
g14
S'__DEBUG_ID'
p199
sg20
g0
(g21
g2
Ntp200
Rp201
(dp202
g25
Nsg26
I7
sg27
g28
sbsbsg20
g201
sg124
g125
sbsbag0
(g113
g2
Ntp203
Rp204
(dp205
g112
g0
(g68
g2
Ntp206
Rp207
(dp208
g14
S'__DEBUG_ID'
p209
sg20
g0
(g21
g2
Ntp210
Rp211
(dp212
g25
Nsg26
I7
sg27
g28
sbsbsg20
g0
(g21
g2
Ntp213
Rp214
(dp215
g25
Nsg26
I7
sg27
g28
sbsg124
S'sizeof'
p216
sbasg20
g159
sbsg14
g0
(g68
g2
Ntp217
Rp218
(dp219
g14
S'write'
p220
sg20
g0
(g21
g2
Ntp221
Rp222
(dp223
g25
Nsg26
I7
sg27
g28
sbsbsg20
g222
sbasg20
g0
(g21
g2
Ntp224
Rp225
(dp226
g25
Nsg26
I0
sg27
g28
sbsb.