ccopy_reg
_reconstructor
p0
(cpycparser.c_ast
Compound
p1
c__builtin__
object
p2
Ntp3
Rp4
(dp5
S'block_items'
p6
(lp7
g0
(cpycparser.c_ast
Decl
p8
g2
Ntp9
Rp10
(dp11
S'funcspec'
p12
(lp13
sS'name'
p14
S'__DEBUG_ID'
p15
sS'quals'
p16
(lp17
sS'storage'
p18
(lp19
sS'coord'
p20
g0
(cpycparser.plyparser
Coord
p21
g2
Ntp22
Rp23
(dp24
S'column'
p25
NsS'line'
p26
I5
sS'file'
p27
S'rubrics/fncn.c'
p28
sbsS'init'
p29
g0
(cpycparser.c_ast
Cast
p30
g2
Ntp31
Rp32
(dp33
S'to_type'
p34
g0
(cpycparser.c_ast
Typename
p35
g2
Ntp36
Rp37
(dp38
g16
(lp39
sS'type'
p40
g0
(cpycparser.c_ast
TypeDecl
p41
g2
Ntp42
Rp43
(dp44
g16
g39
sg40
g0
(cpycparser.c_ast
IdentifierType
p45
g2
Ntp46
Rp47
(dp48
S'names'
p49
(lp50
S'char'
p51
asg20
g0
(g21
g2
Ntp52
Rp53
(dp54
g25
Nsg26
I5
sg27
g28
sbsbsS'declname'
p55
Nsg20
Nsbsg14
Nsg20
g0
(g21
g2
Ntp56
Rp57
(dp58
g25
Nsg26
I0
sg27
g28
sbsbsg20
g0
(g21
g2
Ntp59
Rp60
(dp61
g25
Nsg26
I5
sg27
g28
sbsS'expr'
p62
g0
(cpycparser.c_ast
Constant
p63
g2
Ntp64
Rp65
(dp66
g40
S'int'
p67
sg20
g0
(g21
g2
Ntp68
Rp69
(dp70
g25
Nsg26
I5
sg27
g28
sbsS'value'
p71
S'0'
p72
sbsbsS'bitsize'
p73
Nsg40
g0
(g41
g2
Ntp74
Rp75
(dp76
g16
g17
sg40
g0
(g45
g2
Ntp77
Rp78
(dp79
g49
(lp80
S'char'
p81
asg20
g0
(g21
g2
Ntp82
Rp83
(dp84
g25
Nsg26
I5
sg27
g28
sbsbsg55
g15
sg20
g23
sbsbag0
(cpycparser.c_ast
FuncCall
p85
g2
Ntp86
Rp87
(dp88
S'args'
p89
g0
(cpycparser.c_ast
ExprList
p90
g2
Ntp91
Rp92
(dp93
S'exprs'
p94
(lp95
g0
(cpycparser.c_ast
ID
p96
g2
Ntp97
Rp98
(dp99
g14
S'__DEBUG_FIFO'
p100
sg20
g0
(g21
g2
Ntp101
Rp102
(dp103
g25
Nsg26
I6
sg27
g28
sbsbag0
(g30
g2
Ntp104
Rp105
(dp106
g34
g0
(g35
g2
Ntp107
Rp108
(dp109
g16
(lp110
S'const'
p111
asg40
g0
(cpycparser.c_ast
PtrDecl
p112
g2
Ntp113
Rp114
(dp115
g16
(lp116
sg40
g0
(g41
g2
Ntp117
Rp118
(dp119
g16
g110
sg40
g0
(g45
g2
Ntp120
Rp121
(dp122
g49
(lp123
S'void'
p124
asg20
g0
(g21
g2
Ntp125
Rp126
(dp127
g25
Nsg26
I6
sg27
g28
sbsbsg55
Nsg20
Nsbsg20
g0
(g21
g2
Ntp128
Rp129
(dp130
g25
Nsg26
I6
sg27
g28
sbsbsg14
Nsg20
g0
(g21
g2
Ntp131
Rp132
(dp133
g25
Nsg26
I0
sg27
g28
sbsbsg20
g0
(g21
g2
Ntp134
Rp135
(dp136
g25
Nsg26
I6
sg27
g28
sbsg62
g0
(cpycparser.c_ast
UnaryOp
p137
g2
Ntp138
Rp139
(dp140
g62
g0
(g96
g2
Ntp141
Rp142
(dp143
g14
S'__DEBUG_ID'
p144
sg20
g0
(g21
g2
Ntp145
Rp146
(dp147
g25
Nsg26
I6
sg27
g28
sbsbsg20
g146
sS'op'
p148
S'&'
p149
sbsbag0
(g137
g2
Ntp150
Rp151
(dp152
g62
g0
(g96
g2
Ntp153
Rp154
(dp155
g14
S'__DEBUG_ID'
p156
sg20
g0
(g21
g2
Ntp157
Rp158
(dp159
g25
Nsg26
I6
sg27
g28
sbsbsg20
g0
(g21
g2
Ntp160
Rp161
(dp162
g25
Nsg26
I6
sg27
g28
sbsg148
S'sizeof'
p163
sbasg20
g102
sbsg14
g0
(g96
g2
Ntp164
Rp165
(dp166
g14
S'write'
p167
sg20
g0
(g21
g2
Ntp168
Rp169
(dp170
g25
Nsg26
I6
sg27
g28
sbsbsg20
g169
sbag0
(g85
g2
Ntp171
Rp172
(dp173
g89
g0
(g90
g2
Ntp174
Rp175
(dp176
g94
(lp177
g0
(g96
g2
Ntp178
Rp179
(dp180
g14
S'__DEBUG_FIFO'
p181
sg20
g0
(g21
g2
Ntp182
Rp183
(dp184
g25
Nsg26
I7
sg27
g28
sbsbag0
(g30
g2
Ntp185
Rp186
(dp187
g34
g0
(g35
g2
Ntp188
Rp189
(dp190
g16
(lp191
S'const'
p192
asg40
g0
(g112
g2
Ntp193
Rp194
(dp195
g16
(lp196
sg40
g0
(g41
g2
Ntp197
Rp198
(dp199
g16
g191
sg40
g0
(g45
g2
Ntp200
Rp201
(dp202
g49
(lp203
S'void'
p204
asg20
g0
(g21
g2
Ntp205
Rp206
(dp207
g25
Nsg26
I7
sg27
g28
sbsbsg55
Nsg20
Nsbsg20
g0
(g21
g2
Ntp208
Rp209
(dp210
g25
Nsg26
I7
sg27
g28
sbsbsg14
Nsg20
g0
(g21
g2
Ntp211
Rp212
(dp213
g25
Nsg26
I0
sg27
g28
sbsbsg20
g0
(g21
g2
Ntp214
Rp215
(dp216
g25
Nsg26
I7
sg27
g28
sbsg62
g0
(g137
g2
Ntp217
Rp218
(dp219
g62
g0
(g96
g2
Ntp220
Rp221
(dp222
g14
S'__DEBUG_ID'
p223
sg20
g0
(g21
g2
Ntp224
Rp225
(dp226
g25
Nsg26
I7
sg27
g28
sbsbsg20
g225
sg148
g149
sbsbag0
(g137
g2
Ntp227
Rp228
(dp229
g62
g0
(g96
g2
Ntp230
Rp231
(dp232
g14
S'__DEBUG_ID'
p233
sg20
g0
(g21
g2
Ntp234
Rp235
(dp236
g25
Nsg26
I7
sg27
g28
sbsbsg20
g0
(g21
g2
Ntp237
Rp238
(dp239
g25
Nsg26
I7
sg27
g28
sbsg148
S'sizeof'
p240
sbasg20
g183
sbsg14
g0
(g96
g2
Ntp241
Rp242
(dp243
g14
S'write'
p244
sg20
g0
(g21
g2
Ntp245
Rp246
(dp247
g25
Nsg26
I7
sg27
g28
sbsbsg20
g246
sbasg20
g0
(g21
g2
Ntp248
Rp249
(dp250
g25
Nsg26
I0
sg27
g28
sbsb.