ccopy_reg
_reconstructor
p0
(cpycparser.c_ast
Compound
p1
c__builtin__
object
p2
Ntp3
Rp4
(dp5
S'block_items'
p6
(lp7
g0
(cpycparser.c_ast
FuncCall
p8
g2
Ntp9
Rp10
(dp11
S'args'
p12
g0
(cpycparser.c_ast
ExprList
p13
g2
Ntp14
Rp15
(dp16
S'exprs'
p17
(lp18
g0
(cpycparser.c_ast
ID
p19
g2
Ntp20
Rp21
(dp22
S'name'
p23
S'__DEBUG_FIFO'
p24
sS'coord'
p25
g0
(cpycparser.plyparser
Coord
p26
g2
Ntp27
Rp28
(dp29
S'column'
p30
NsS'line'
p31
I5
sS'file'
p32
S'rubrics/fncn.c'
p33
sbsbag0
(cpycparser.c_ast
Constant
p34
g2
Ntp35
Rp36
(dp37
S'type'
p38
S'string'
p39
sg25
g0
(g26
g2
Ntp40
Rp41
(dp42
g30
Nsg31
I5
sg32
g33
sbsS'value'
p43
S'"Entering fncn %s.\\n"'
p44
sbag0
(g34
g2
Ntp45
Rp46
(dp47
g38
S'int'
p48
sg25
g0
(g26
g2
Ntp49
Rp50
(dp51
g30
Nsg31
I5
sg32
g33
sbsg43
S'20'
p52
sbasg25
g28
sbsg23
g0
(g19
g2
Ntp53
Rp54
(dp55
g23
S'write'
p56
sg25
g0
(g26
g2
Ntp57
Rp58
(dp59
g30
Nsg31
I5
sg32
g33
sbsbsg25
g58
sbag0
(g8
g2
Ntp60
Rp61
(dp62
g12
g0
(g13
g2
Ntp63
Rp64
(dp65
g17
(lp66
g0
(g19
g2
Ntp67
Rp68
(dp69
g23
S'__DEBUG_FIFO'
p70
sg25
g0
(g26
g2
Ntp71
Rp72
(dp73
g30
Nsg31
I6
sg32
g33
sbsbag0
(g34
g2
Ntp74
Rp75
(dp76
g38
g39
sg25
g0
(g26
g2
Ntp77
Rp78
(dp79
g30
Nsg31
I6
sg32
g33
sbsg43
S'"Exiting fncn %s.\\n"'
p80
sbag0
(g34
g2
Ntp81
Rp82
(dp83
g38
g48
sg25
g0
(g26
g2
Ntp84
Rp85
(dp86
g30
Nsg31
I6
sg32
g33
sbsg43
S'19'
p87
sbasg25
g72
sbsg23
g0
(g19
g2
Ntp88
Rp89
(dp90
g23
S'write'
p91
sg25
g0
(g26
g2
Ntp92
Rp93
(dp94
g30
Nsg31
I6
sg32
g33
sbsbsg25
g93
sbasg25
g0
(g26
g2
Ntp95
Rp96
(dp97
g30
Nsg31
I0
sg32
g33
sbsb.