ccopy_reg
_reconstructor
p0
(cpycparser.c_ast
Compound
p1
c__builtin__
object
p2
Ntp3
Rp4
(dp5
S'block_items'
p6
(lp7
g0
(cpycparser.c_ast
Decl
p8
g2
Ntp9
Rp10
(dp11
S'funcspec'
p12
(lp13
sS'name'
p14
S'__DEBUG_ID'
p15
sS'quals'
p16
(lp17
sS'storage'
p18
(lp19
sS'coord'
p20
g0
(cpycparser.plyparser
Coord
p21
g2
Ntp22
Rp23
(dp24
S'column'
p25
NsS'line'
p26
I6
sS'file'
p27
S'rubrics/return.c'
p28
sbsS'init'
p29
g0
(cpycparser.c_ast
Constant
p30
g2
Ntp31
Rp32
(dp33
S'type'
p34
S'int'
p35
sg20
g0
(g21
g2
Ntp36
Rp37
(dp38
g25
Nsg26
I6
sg27
g28
sbsS'value'
p39
S'0'
p40
sbsS'bitsize'
p41
Nsg34
g0
(cpycparser.c_ast
TypeDecl
p42
g2
Ntp43
Rp44
(dp45
g16
g17
sg34
g0
(cpycparser.c_ast
IdentifierType
p46
g2
Ntp47
Rp48
(dp49
S'names'
p50
(lp51
S'int'
p52
asg20
g0
(g21
g2
Ntp53
Rp54
(dp55
g25
Nsg26
I6
sg27
g28
sbsbsS'declname'
p56
g15
sg20
g23
sbsbag0
(g8
g2
Ntp57
Rp58
(dp59
g12
(lp60
sg14
S'__DEBUG_RETURN'
p61
sg16
(lp62
sg18
(lp63
sg20
g0
(g21
g2
Ntp64
Rp65
(dp66
g25
Nsg26
I7
sg27
g28
sbsg29
g0
(cpycparser.c_ast
ID
p67
g2
Ntp68
Rp69
(dp70
g14
S'ret'
p71
sg20
g0
(g21
g2
Ntp72
Rp73
(dp74
g25
Nsg26
I7
sg27
g28
sbsbsg41
Nsg34
g0
(g42
g2
Ntp75
Rp76
(dp77
g16
g62
sg34
g0
(g46
g2
Ntp78
Rp79
(dp80
g50
(lp81
S'int'
p82
asg20
g0
(g21
g2
Ntp83
Rp84
(dp85
g25
Nsg26
I7
sg27
g28
sbsbsg56
g61
sg20
g65
sbsbag0
(cpycparser.c_ast
FuncCall
p86
g2
Ntp87
Rp88
(dp89
S'args'
p90
g0
(cpycparser.c_ast
ExprList
p91
g2
Ntp92
Rp93
(dp94
S'exprs'
p95
(lp96
g0
(g67
g2
Ntp97
Rp98
(dp99
g14
S'__DEBUG_FIFO'
p100
sg20
g0
(g21
g2
Ntp101
Rp102
(dp103
g25
Nsg26
I8
sg27
g28
sbsbag0
(cpycparser.c_ast
Cast
p104
g2
Ntp105
Rp106
(dp107
S'to_type'
p108
g0
(cpycparser.c_ast
Typename
p109
g2
Ntp110
Rp111
(dp112
g16
(lp113
S'const'
p114
asg34
g0
(cpycparser.c_ast
PtrDecl
p115
g2
Ntp116
Rp117
(dp118
g16
(lp119
sg34
g0
(g42
g2
Ntp120
Rp121
(dp122
g16
g113
sg34
g0
(g46
g2
Ntp123
Rp124
(dp125
g50
(lp126
S'void'
p127
asg20
g0
(g21
g2
Ntp128
Rp129
(dp130
g25
Nsg26
I8
sg27
g28
sbsbsg56
Nsg20
Nsbsg20
g0
(g21
g2
Ntp131
Rp132
(dp133
g25
Nsg26
I8
sg27
g28
sbsbsg14
Nsg20
g0
(g21
g2
Ntp134
Rp135
(dp136
g25
Nsg26
I0
sg27
g28
sbsbsg20
g0
(g21
g2
Ntp137
Rp138
(dp139
g25
Nsg26
I8
sg27
g28
sbsS'expr'
p140
g0
(cpycparser.c_ast
UnaryOp
p141
g2
Ntp142
Rp143
(dp144
g140
g0
(g67
g2
Ntp145
Rp146
(dp147
g14
S'__DEBUG_ID'
p148
sg20
g0
(g21
g2
Ntp149
Rp150
(dp151
g25
Nsg26
I8
sg27
g28
sbsbsg20
g150
sS'op'
p152
S'&'
p153
sbsbag0
(g141
g2
Ntp154
Rp155
(dp156
g140
g0
(g67
g2
Ntp157
Rp158
(dp159
g14
S'__DEBUG_ID'
p160
sg20
g0
(g21
g2
Ntp161
Rp162
(dp163
g25
Nsg26
I8
sg27
g28
sbsbsg20
g0
(g21
g2
Ntp164
Rp165
(dp166
g25
Nsg26
I8
sg27
g28
sbsg152
S'sizeof'
p167
sbasg20
g102
sbsg14
g0
(g67
g2
Ntp168
Rp169
(dp170
g14
S'write'
p171
sg20
g0
(g21
g2
Ntp172
Rp173
(dp174
g25
Nsg26
I8
sg27
g28
sbsbsg20
g173
sbag0
(cpycparser.c_ast
Assignment
p175
g2
Ntp176
Rp177
(dp178
S'lvalue'
p179
g0
(g67
g2
Ntp180
Rp181
(dp182
g14
S'__DEBUG_ID'
p183
sg20
g0
(g21
g2
Ntp184
Rp185
(dp186
g25
Nsg26
I9
sg27
g28
sbsbsS'rvalue'
p187
g0
(g104
g2
Ntp188
Rp189
(dp190
g108
g0
(g109
g2
Ntp191
Rp192
(dp193
g16
(lp194
sg34
g0
(g42
g2
Ntp195
Rp196
(dp197
g16
g194
sg34
g0
(g46
g2
Ntp198
Rp199
(dp200
g50
(lp201
S'int'
p202
asg20
g0
(g21
g2
Ntp203
Rp204
(dp205
g25
Nsg26
I9
sg27
g28
sbsbsg56
Nsg20
Nsbsg14
Nsg20
g0
(g21
g2
Ntp206
Rp207
(dp208
g25
Nsg26
I0
sg27
g28
sbsbsg20
g0
(g21
g2
Ntp209
Rp210
(dp211
g25
Nsg26
I9
sg27
g28
sbsg140
g0
(g141
g2
Ntp212
Rp213
(dp214
g140
g0
(g67
g2
Ntp215
Rp216
(dp217
g14
S'__DEBUG_RETURN'
p218
sg20
g0
(g21
g2
Ntp219
Rp220
(dp221
g25
Nsg26
I9
sg27
g28
sbsbsg20
g0
(g21
g2
Ntp222
Rp223
(dp224
g25
Nsg26
I9
sg27
g28
sbsg152
S'sizeof'
p225
sbsbsg20
g185
sg152
S'='
p226
sbag0
(g86
g2
Ntp227
Rp228
(dp229
g90
g0
(g91
g2
Ntp230
Rp231
(dp232
g95
(lp233
g0
(g67
g2
Ntp234
Rp235
(dp236
g14
S'__DEBUG_FIFO'
p237
sg20
g0
(g21
g2
Ntp238
Rp239
(dp240
g25
Nsg26
I10
sg27
g28
sbsbag0
(g104
g2
Ntp241
Rp242
(dp243
g108
g0
(g109
g2
Ntp244
Rp245
(dp246
g16
(lp247
S'const'
p248
asg34
g0
(g115
g2
Ntp249
Rp250
(dp251
g16
(lp252
sg34
g0
(g42
g2
Ntp253
Rp254
(dp255
g16
g247
sg34
g0
(g46
g2
Ntp256
Rp257
(dp258
g50
(lp259
S'void'
p260
asg20
g0
(g21
g2
Ntp261
Rp262
(dp263
g25
Nsg26
I10
sg27
g28
sbsbsg56
Nsg20
Nsbsg20
g0
(g21
g2
Ntp264
Rp265
(dp266
g25
Nsg26
I10
sg27
g28
sbsbsg14
Nsg20
g0
(g21
g2
Ntp267
Rp268
(dp269
g25
Nsg26
I0
sg27
g28
sbsbsg20
g0
(g21
g2
Ntp270
Rp271
(dp272
g25
Nsg26
I10
sg27
g28
sbsg140
g0
(g141
g2
Ntp273
Rp274
(dp275
g140
g0
(g67
g2
Ntp276
Rp277
(dp278
g14
S'__DEBUG_ID'
p279
sg20
g0
(g21
g2
Ntp280
Rp281
(dp282
g25
Nsg26
I10
sg27
g28
sbsbsg20
g281
sg152
g153
sbsbag0
(g141
g2
Ntp283
Rp284
(dp285
g140
g0
(g67
g2
Ntp286
Rp287
(dp288
g14
S'__DEBUG_ID'
p289
sg20
g0
(g21
g2
Ntp290
Rp291
(dp292
g25
Nsg26
I10
sg27
g28
sbsbsg20
g0
(g21
g2
Ntp293
Rp294
(dp295
g25
Nsg26
I10
sg27
g28
sbsg152
S'sizeof'
p296
sbasg20
g239
sbsg14
g0
(g67
g2
Ntp297
Rp298
(dp299
g14
S'write'
p300
sg20
g0
(g21
g2
Ntp301
Rp302
(dp303
g25
Nsg26
I10
sg27
g28
sbsbsg20
g302
sbag0
(g86
g2
Ntp304
Rp305
(dp306
g90
g0
(g91
g2
Ntp307
Rp308
(dp309
g95
(lp310
g0
(g67
g2
Ntp311
Rp312
(dp313
g14
S'__DEBUG_FIFO'
p314
sg20
g0
(g21
g2
Ntp315
Rp316
(dp317
g25
Nsg26
I11
sg27
g28
sbsbag0
(g104
g2
Ntp318
Rp319
(dp320
g108
g0
(g109
g2
Ntp321
Rp322
(dp323
g16
(lp324
S'const'
p325
asg34
g0
(g115
g2
Ntp326
Rp327
(dp328
g16
(lp329
sg34
g0
(g42
g2
Ntp330
Rp331
(dp332
g16
g324
sg34
g0
(g46
g2
Ntp333
Rp334
(dp335
g50
(lp336
S'void'
p337
asg20
g0
(g21
g2
Ntp338
Rp339
(dp340
g25
Nsg26
I11
sg27
g28
sbsbsg56
Nsg20
Nsbsg20
g0
(g21
g2
Ntp341
Rp342
(dp343
g25
Nsg26
I11
sg27
g28
sbsbsg14
Nsg20
g0
(g21
g2
Ntp344
Rp345
(dp346
g25
Nsg26
I0
sg27
g28
sbsbsg20
g0
(g21
g2
Ntp347
Rp348
(dp349
g25
Nsg26
I11
sg27
g28
sbsg140
g0
(g141
g2
Ntp350
Rp351
(dp352
g140
g0
(g67
g2
Ntp353
Rp354
(dp355
g14
S'__DEBUG_RETURN'
p356
sg20
g0
(g21
g2
Ntp357
Rp358
(dp359
g25
Nsg26
I11
sg27
g28
sbsbsg20
g358
sg152
g153
sbsbag0
(g141
g2
Ntp360
Rp361
(dp362
g140
g0
(g67
g2
Ntp363
Rp364
(dp365
g14
S'__DEBUG_RETURN'
p366
sg20
g0
(g21
g2
Ntp367
Rp368
(dp369
g25
Nsg26
I11
sg27
g28
sbsbsg20
g0
(g21
g2
Ntp370
Rp371
(dp372
g25
Nsg26
I11
sg27
g28
sbsg152
S'sizeof'
p373
sbasg20
g316
sbsg14
g0
(g67
g2
Ntp374
Rp375
(dp376
g14
S'write'
p377
sg20
g0
(g21
g2
Ntp378
Rp379
(dp380
g25
Nsg26
I11
sg27
g28
sbsbsg20
g379
sbag0
(cpycparser.c_ast
Return
p381
g2
Ntp382
Rp383
(dp384
g140
g0
(g67
g2
Ntp385
Rp386
(dp387
g14
S'__DEBUG_RETURN'
p388
sg20
g0
(g21
g2
Ntp389
Rp390
(dp391
g25
Nsg26
I12
sg27
g28
sbsbsg20
g0
(g21
g2
Ntp392
Rp393
(dp394
g25
Nsg26
I12
sg27
g28
sbsbasg20
g0
(g21
g2
Ntp395
Rp396
(dp397
g25
Nsg26
I0
sg27
g28
sbsb.