ccopy_reg
_reconstructor
p0
(cpycparser.c_ast
Compound
p1
c__builtin__
object
p2
Ntp3
Rp4
(dp5
S'block_items'
p6
(lp7
g0
(cpycparser.c_ast
Decl
p8
g2
Ntp9
Rp10
(dp11
S'funcspec'
p12
(lp13
sS'name'
p14
S'__DEBUG_ID'
p15
sS'quals'
p16
(lp17
sS'storage'
p18
(lp19
sS'coord'
p20
g0
(cpycparser.plyparser
Coord
p21
g2
Ntp22
Rp23
(dp24
S'column'
p25
NsS'line'
p26
I6
sS'file'
p27
S'rubrics/return.c'
p28
sbsS'init'
p29
g0
(cpycparser.c_ast
Cast
p30
g2
Ntp31
Rp32
(dp33
S'to_type'
p34
g0
(cpycparser.c_ast
Typename
p35
g2
Ntp36
Rp37
(dp38
g16
(lp39
sS'type'
p40
g0
(cpycparser.c_ast
TypeDecl
p41
g2
Ntp42
Rp43
(dp44
g16
g39
sg40
g0
(cpycparser.c_ast
IdentifierType
p45
g2
Ntp46
Rp47
(dp48
S'names'
p49
(lp50
S'char'
p51
asg20
g0
(g21
g2
Ntp52
Rp53
(dp54
g25
Nsg26
I6
sg27
g28
sbsbsS'declname'
p55
Nsg20
Nsbsg14
Nsg20
g0
(g21
g2
Ntp56
Rp57
(dp58
g25
Nsg26
I0
sg27
g28
sbsbsg20
g0
(g21
g2
Ntp59
Rp60
(dp61
g25
Nsg26
I6
sg27
g28
sbsS'expr'
p62
g0
(cpycparser.c_ast
Constant
p63
g2
Ntp64
Rp65
(dp66
g40
S'int'
p67
sg20
g0
(g21
g2
Ntp68
Rp69
(dp70
g25
Nsg26
I6
sg27
g28
sbsS'value'
p71
S'0'
p72
sbsbsS'bitsize'
p73
Nsg40
g0
(g41
g2
Ntp74
Rp75
(dp76
g16
g17
sg40
g0
(g45
g2
Ntp77
Rp78
(dp79
g49
(lp80
S'char'
p81
asg20
g0
(g21
g2
Ntp82
Rp83
(dp84
g25
Nsg26
I6
sg27
g28
sbsbsg55
g15
sg20
g23
sbsbag0
(g8
g2
Ntp85
Rp86
(dp87
g12
(lp88
sg14
S'__DEBUG_RETURN'
p89
sg16
(lp90
sg18
(lp91
sg20
g0
(g21
g2
Ntp92
Rp93
(dp94
g25
Nsg26
I7
sg27
g28
sbsg29
g0
(cpycparser.c_ast
ID
p95
g2
Ntp96
Rp97
(dp98
g14
S'ret'
p99
sg20
g0
(g21
g2
Ntp100
Rp101
(dp102
g25
Nsg26
I7
sg27
g28
sbsbsg73
Nsg40
g0
(g41
g2
Ntp103
Rp104
(dp105
g16
g90
sg40
g0
(g45
g2
Ntp106
Rp107
(dp108
g49
(lp109
S'int'
p110
asg20
g0
(g21
g2
Ntp111
Rp112
(dp113
g25
Nsg26
I7
sg27
g28
sbsbsg55
g89
sg20
g93
sbsbag0
(cpycparser.c_ast
FuncCall
p114
g2
Ntp115
Rp116
(dp117
S'args'
p118
g0
(cpycparser.c_ast
ExprList
p119
g2
Ntp120
Rp121
(dp122
S'exprs'
p123
(lp124
g0
(g95
g2
Ntp125
Rp126
(dp127
g14
S'__DEBUG_FIFO'
p128
sg20
g0
(g21
g2
Ntp129
Rp130
(dp131
g25
Nsg26
I8
sg27
g28
sbsbag0
(g30
g2
Ntp132
Rp133
(dp134
g34
g0
(g35
g2
Ntp135
Rp136
(dp137
g16
(lp138
S'const'
p139
asg40
g0
(cpycparser.c_ast
PtrDecl
p140
g2
Ntp141
Rp142
(dp143
g16
(lp144
sg40
g0
(g41
g2
Ntp145
Rp146
(dp147
g16
g138
sg40
g0
(g45
g2
Ntp148
Rp149
(dp150
g49
(lp151
S'void'
p152
asg20
g0
(g21
g2
Ntp153
Rp154
(dp155
g25
Nsg26
I8
sg27
g28
sbsbsg55
Nsg20
Nsbsg20
g0
(g21
g2
Ntp156
Rp157
(dp158
g25
Nsg26
I8
sg27
g28
sbsbsg14
Nsg20
g0
(g21
g2
Ntp159
Rp160
(dp161
g25
Nsg26
I0
sg27
g28
sbsbsg20
g0
(g21
g2
Ntp162
Rp163
(dp164
g25
Nsg26
I8
sg27
g28
sbsg62
g0
(cpycparser.c_ast
UnaryOp
p165
g2
Ntp166
Rp167
(dp168
g62
g0
(g95
g2
Ntp169
Rp170
(dp171
g14
S'__DEBUG_ID'
p172
sg20
g0
(g21
g2
Ntp173
Rp174
(dp175
g25
Nsg26
I8
sg27
g28
sbsbsg20
g174
sS'op'
p176
S'&'
p177
sbsbag0
(g165
g2
Ntp178
Rp179
(dp180
g62
g0
(g95
g2
Ntp181
Rp182
(dp183
g14
S'__DEBUG_ID'
p184
sg20
g0
(g21
g2
Ntp185
Rp186
(dp187
g25
Nsg26
I8
sg27
g28
sbsbsg20
g0
(g21
g2
Ntp188
Rp189
(dp190
g25
Nsg26
I8
sg27
g28
sbsg176
S'sizeof'
p191
sbasg20
g130
sbsg14
g0
(g95
g2
Ntp192
Rp193
(dp194
g14
S'write'
p195
sg20
g0
(g21
g2
Ntp196
Rp197
(dp198
g25
Nsg26
I8
sg27
g28
sbsbsg20
g197
sbag0
(cpycparser.c_ast
Assignment
p199
g2
Ntp200
Rp201
(dp202
S'lvalue'
p203
g0
(g95
g2
Ntp204
Rp205
(dp206
g14
S'__DEBUG_ID'
p207
sg20
g0
(g21
g2
Ntp208
Rp209
(dp210
g25
Nsg26
I9
sg27
g28
sbsbsS'rvalue'
p211
g0
(g30
g2
Ntp212
Rp213
(dp214
g34
g0
(g35
g2
Ntp215
Rp216
(dp217
g16
(lp218
sg40
g0
(g41
g2
Ntp219
Rp220
(dp221
g16
g218
sg40
g0
(g45
g2
Ntp222
Rp223
(dp224
g49
(lp225
S'int'
p226
asg20
g0
(g21
g2
Ntp227
Rp228
(dp229
g25
Nsg26
I9
sg27
g28
sbsbsg55
Nsg20
Nsbsg14
Nsg20
g0
(g21
g2
Ntp230
Rp231
(dp232
g25
Nsg26
I0
sg27
g28
sbsbsg20
g0
(g21
g2
Ntp233
Rp234
(dp235
g25
Nsg26
I9
sg27
g28
sbsg62
g0
(g165
g2
Ntp236
Rp237
(dp238
g62
g0
(g95
g2
Ntp239
Rp240
(dp241
g14
S'__DEBUG_RETURN'
p242
sg20
g0
(g21
g2
Ntp243
Rp244
(dp245
g25
Nsg26
I9
sg27
g28
sbsbsg20
g0
(g21
g2
Ntp246
Rp247
(dp248
g25
Nsg26
I9
sg27
g28
sbsg176
S'sizeof'
p249
sbsbsg20
g209
sg176
S'='
p250
sbag0
(g114
g2
Ntp251
Rp252
(dp253
g118
g0
(g119
g2
Ntp254
Rp255
(dp256
g123
(lp257
g0
(g95
g2
Ntp258
Rp259
(dp260
g14
S'__DEBUG_FIFO'
p261
sg20
g0
(g21
g2
Ntp262
Rp263
(dp264
g25
Nsg26
I10
sg27
g28
sbsbag0
(g30
g2
Ntp265
Rp266
(dp267
g34
g0
(g35
g2
Ntp268
Rp269
(dp270
g16
(lp271
S'const'
p272
asg40
g0
(g140
g2
Ntp273
Rp274
(dp275
g16
(lp276
sg40
g0
(g41
g2
Ntp277
Rp278
(dp279
g16
g271
sg40
g0
(g45
g2
Ntp280
Rp281
(dp282
g49
(lp283
S'void'
p284
asg20
g0
(g21
g2
Ntp285
Rp286
(dp287
g25
Nsg26
I10
sg27
g28
sbsbsg55
Nsg20
Nsbsg20
g0
(g21
g2
Ntp288
Rp289
(dp290
g25
Nsg26
I10
sg27
g28
sbsbsg14
Nsg20
g0
(g21
g2
Ntp291
Rp292
(dp293
g25
Nsg26
I0
sg27
g28
sbsbsg20
g0
(g21
g2
Ntp294
Rp295
(dp296
g25
Nsg26
I10
sg27
g28
sbsg62
g0
(g165
g2
Ntp297
Rp298
(dp299
g62
g0
(g95
g2
Ntp300
Rp301
(dp302
g14
S'__DEBUG_ID'
p303
sg20
g0
(g21
g2
Ntp304
Rp305
(dp306
g25
Nsg26
I10
sg27
g28
sbsbsg20
g305
sg176
g177
sbsbag0
(g165
g2
Ntp307
Rp308
(dp309
g62
g0
(g95
g2
Ntp310
Rp311
(dp312
g14
S'__DEBUG_ID'
p313
sg20
g0
(g21
g2
Ntp314
Rp315
(dp316
g25
Nsg26
I10
sg27
g28
sbsbsg20
g0
(g21
g2
Ntp317
Rp318
(dp319
g25
Nsg26
I10
sg27
g28
sbsg176
S'sizeof'
p320
sbasg20
g263
sbsg14
g0
(g95
g2
Ntp321
Rp322
(dp323
g14
S'write'
p324
sg20
g0
(g21
g2
Ntp325
Rp326
(dp327
g25
Nsg26
I10
sg27
g28
sbsbsg20
g326
sbag0
(g114
g2
Ntp328
Rp329
(dp330
g118
g0
(g119
g2
Ntp331
Rp332
(dp333
g123
(lp334
g0
(g95
g2
Ntp335
Rp336
(dp337
g14
S'__DEBUG_FIFO'
p338
sg20
g0
(g21
g2
Ntp339
Rp340
(dp341
g25
Nsg26
I11
sg27
g28
sbsbag0
(g30
g2
Ntp342
Rp343
(dp344
g34
g0
(g35
g2
Ntp345
Rp346
(dp347
g16
(lp348
S'const'
p349
asg40
g0
(g140
g2
Ntp350
Rp351
(dp352
g16
(lp353
sg40
g0
(g41
g2
Ntp354
Rp355
(dp356
g16
g348
sg40
g0
(g45
g2
Ntp357
Rp358
(dp359
g49
(lp360
S'void'
p361
asg20
g0
(g21
g2
Ntp362
Rp363
(dp364
g25
Nsg26
I11
sg27
g28
sbsbsg55
Nsg20
Nsbsg20
g0
(g21
g2
Ntp365
Rp366
(dp367
g25
Nsg26
I11
sg27
g28
sbsbsg14
Nsg20
g0
(g21
g2
Ntp368
Rp369
(dp370
g25
Nsg26
I0
sg27
g28
sbsbsg20
g0
(g21
g2
Ntp371
Rp372
(dp373
g25
Nsg26
I11
sg27
g28
sbsg62
g0
(g165
g2
Ntp374
Rp375
(dp376
g62
g0
(g95
g2
Ntp377
Rp378
(dp379
g14
S'__DEBUG_RETURN'
p380
sg20
g0
(g21
g2
Ntp381
Rp382
(dp383
g25
Nsg26
I11
sg27
g28
sbsbsg20
g382
sg176
g177
sbsbag0
(g165
g2
Ntp384
Rp385
(dp386
g62
g0
(g95
g2
Ntp387
Rp388
(dp389
g14
S'__DEBUG_RETURN'
p390
sg20
g0
(g21
g2
Ntp391
Rp392
(dp393
g25
Nsg26
I11
sg27
g28
sbsbsg20
g0
(g21
g2
Ntp394
Rp395
(dp396
g25
Nsg26
I11
sg27
g28
sbsg176
S'sizeof'
p397
sbasg20
g340
sbsg14
g0
(g95
g2
Ntp398
Rp399
(dp400
g14
S'write'
p401
sg20
g0
(g21
g2
Ntp402
Rp403
(dp404
g25
Nsg26
I11
sg27
g28
sbsbsg20
g403
sbag0
(cpycparser.c_ast
Return
p405
g2
Ntp406
Rp407
(dp408
g62
g0
(g95
g2
Ntp409
Rp410
(dp411
g14
S'__DEBUG_RETURN'
p412
sg20
g0
(g21
g2
Ntp413
Rp414
(dp415
g25
Nsg26
I12
sg27
g28
sbsbsg20
g0
(g21
g2
Ntp416
Rp417
(dp418
g25
Nsg26
I12
sg27
g28
sbsbasg20
g0
(g21
g2
Ntp419
Rp420
(dp421
g25
Nsg26
I0
sg27
g28
sbsb.