ccopy_reg
_reconstructor
p0
(cpycparser.c_ast
Compound
p1
c__builtin__
object
p2
Ntp3
Rp4
(dp5
S'block_items'
p6
(lp7
g0
(cpycparser.c_ast
If
p8
g2
Ntp9
Rp10
(dp11
S'cond'
p12
g0
(cpycparser.c_ast
BinaryOp
p13
g2
Ntp14
Rp15
(dp16
S'left'
p17
g0
(cpycparser.c_ast
ID
p18
g2
Ntp19
Rp20
(dp21
S'name'
p22
S'argc'
p23
sS'coord'
p24
g0
(cpycparser.plyparser
Coord
p25
g2
Ntp26
Rp27
(dp28
S'column'
p29
NsS'line'
p30
I11
sS'file'
p31
S'rubrics/setup.c'
p32
sbsbsS'right'
p33
g0
(cpycparser.c_ast
Constant
p34
g2
Ntp35
Rp36
(dp37
S'type'
p38
S'int'
p39
sg24
g0
(g25
g2
Ntp40
Rp41
(dp42
g29
Nsg30
I11
sg31
g32
sbsS'value'
p43
S'1'
p44
sbsg24
g27
sS'op'
p45
S'>'
p46
sbsS'iffalse'
p47
Nsg24
g0
(g25
g2
Ntp48
Rp49
(dp50
g29
Nsg30
I11
sg31
g32
sbsS'iftrue'
p51
g0
(cpycparser.c_ast
Assignment
p52
g2
Ntp53
Rp54
(dp55
S'lvalue'
p56
g0
(g18
g2
Ntp57
Rp58
(dp59
g22
S'__DEBUG_FIFO'
p60
sg24
g0
(g25
g2
Ntp61
Rp62
(dp63
g29
Nsg30
I11
sg31
g32
sbsbsS'rvalue'
p64
g0
(cpycparser.c_ast
FuncCall
p65
g2
Ntp66
Rp67
(dp68
S'args'
p69
g0
(cpycparser.c_ast
ExprList
p70
g2
Ntp71
Rp72
(dp73
S'exprs'
p74
(lp75
g0
(cpycparser.c_ast
ArrayRef
p76
g2
Ntp77
Rp78
(dp79
S'subscript'
p80
g0
(cpycparser.c_ast
UnaryOp
p81
g2
Ntp82
Rp83
(dp84
S'expr'
p85
g0
(g18
g2
Ntp86
Rp87
(dp88
g22
S'argc'
p89
sg24
g0
(g25
g2
Ntp90
Rp91
(dp92
g29
Nsg30
I11
sg31
g32
sbsbsg24
g91
sg45
S'--'
p93
sbsg22
g0
(g18
g2
Ntp94
Rp95
(dp96
g22
S'argv'
p97
sg24
g0
(g25
g2
Ntp98
Rp99
(dp100
g29
Nsg30
I11
sg31
g32
sbsbsg24
g99
sbag0
(g13
g2
Ntp101
Rp102
(dp103
g17
g0
(g18
g2
Ntp104
Rp105
(dp106
g22
S'O_WRONLY'
p107
sg24
g0
(g25
g2
Ntp108
Rp109
(dp110
g29
Nsg30
I11
sg31
g32
sbsbsg33
g0
(g18
g2
Ntp111
Rp112
(dp113
g22
S'O_NONBLOCK'
p114
sg24
g0
(g25
g2
Ntp115
Rp116
(dp117
g29
Nsg30
I11
sg31
g32
sbsbsg24
g109
sg45
S'|'
p118
sbasg24
g99
sbsg22
g0
(g18
g2
Ntp119
Rp120
(dp121
g22
S'open'
p122
sg24
g0
(g25
g2
Ntp123
Rp124
(dp125
g29
Nsg30
I11
sg31
g32
sbsbsg24
g124
sbsg24
g62
sg45
S'='
p126
sbsbag0
(g52
g2
Ntp127
Rp128
(dp129
g56
g0
(g76
g2
Ntp130
Rp131
(dp132
g80
g0
(g18
g2
Ntp133
Rp134
(dp135
g22
S'argc'
p136
sg24
g0
(g25
g2
Ntp137
Rp138
(dp139
g29
Nsg30
I12
sg31
g32
sbsbsg22
g0
(g18
g2
Ntp140
Rp141
(dp142
g22
S'argv'
p143
sg24
g0
(g25
g2
Ntp144
Rp145
(dp146
g29
Nsg30
I12
sg31
g32
sbsbsg24
g145
sbsg64
g0
(cpycparser.c_ast
Cast
p147
g2
Ntp148
Rp149
(dp150
S'to_type'
p151
g0
(cpycparser.c_ast
Typename
p152
g2
Ntp153
Rp154
(dp155
S'quals'
p156
(lp157
sg38
g0
(cpycparser.c_ast
PtrDecl
p158
g2
Ntp159
Rp160
(dp161
g156
(lp162
sg38
g0
(cpycparser.c_ast
TypeDecl
p163
g2
Ntp164
Rp165
(dp166
g156
g157
sg38
g0
(cpycparser.c_ast
IdentifierType
p167
g2
Ntp168
Rp169
(dp170
S'names'
p171
(lp172
S'void'
p173
asg24
g0
(g25
g2
Ntp174
Rp175
(dp176
g29
Nsg30
I12
sg31
g32
sbsbsS'declname'
p177
Nsg24
Nsbsg24
g0
(g25
g2
Ntp178
Rp179
(dp180
g29
Nsg30
I12
sg31
g32
sbsbsg22
Nsg24
g0
(g25
g2
Ntp181
Rp182
(dp183
g29
Nsg30
I0
sg31
g32
sbsbsg24
g0
(g25
g2
Ntp184
Rp185
(dp186
g29
Nsg30
I12
sg31
g32
sbsg85
g0
(g34
g2
Ntp187
Rp188
(dp189
g38
g39
sg24
g0
(g25
g2
Ntp190
Rp191
(dp192
g29
Nsg30
I12
sg31
g32
sbsg43
S'0'
p193
sbsbsg24
g145
sg45
g126
sbasg24
g0
(g25
g2
Ntp194
Rp195
(dp196
g29
Nsg30
I0
sg31
g32
sbsb.