ccopy_reg
_reconstructor
p0
(cpycparser.c_ast
Compound
p1
c__builtin__
object
p2
Ntp3
Rp4
(dp5
S'block_items'
p6
(lp7
g0
(cpycparser.c_ast
Decl
p8
g2
Ntp9
Rp10
(dp11
S'funcspec'
p12
(lp13
sS'name'
p14
S'__DEBUG_ID'
p15
sS'quals'
p16
(lp17
sS'storage'
p18
(lp19
sS'coord'
p20
g0
(cpycparser.plyparser
Coord
p21
g2
Ntp22
Rp23
(dp24
S'column'
p25
NsS'line'
p26
I6
sS'file'
p27
S'rubrics/var.c'
p28
sbsS'init'
p29
g0
(cpycparser.c_ast
Constant
p30
g2
Ntp31
Rp32
(dp33
S'type'
p34
S'int'
p35
sg20
g0
(g21
g2
Ntp36
Rp37
(dp38
g25
Nsg26
I6
sg27
g28
sbsS'value'
p39
S'0'
p40
sbsS'bitsize'
p41
Nsg34
g0
(cpycparser.c_ast
TypeDecl
p42
g2
Ntp43
Rp44
(dp45
g16
g17
sg34
g0
(cpycparser.c_ast
IdentifierType
p46
g2
Ntp47
Rp48
(dp49
S'names'
p50
(lp51
S'int'
p52
asg20
g0
(g21
g2
Ntp53
Rp54
(dp55
g25
Nsg26
I6
sg27
g28
sbsbsS'declname'
p56
g15
sg20
g23
sbsbag0
(cpycparser.c_ast
FuncCall
p57
g2
Ntp58
Rp59
(dp60
S'args'
p61
g0
(cpycparser.c_ast
ExprList
p62
g2
Ntp63
Rp64
(dp65
S'exprs'
p66
(lp67
g0
(cpycparser.c_ast
ID
p68
g2
Ntp69
Rp70
(dp71
g14
S'__DEBUG_FIFO'
p72
sg20
g0
(g21
g2
Ntp73
Rp74
(dp75
g25
Nsg26
I7
sg27
g28
sbsbag0
(cpycparser.c_ast
UnaryOp
p76
g2
Ntp77
Rp78
(dp79
S'expr'
p80
g0
(g68
g2
Ntp81
Rp82
(dp83
g14
S'__DEBUG_ID'
p84
sg20
g0
(g21
g2
Ntp85
Rp86
(dp87
g25
Nsg26
I7
sg27
g28
sbsbsg20
g86
sS'op'
p88
S'&'
p89
sbag0
(g76
g2
Ntp90
Rp91
(dp92
g80
g0
(g68
g2
Ntp93
Rp94
(dp95
g14
S'__DEBUG_ID'
p96
sg20
g0
(g21
g2
Ntp97
Rp98
(dp99
g25
Nsg26
I7
sg27
g28
sbsbsg20
g0
(g21
g2
Ntp100
Rp101
(dp102
g25
Nsg26
I7
sg27
g28
sbsg88
S'sizeof'
p103
sbasg20
g74
sbsg14
g0
(g68
g2
Ntp104
Rp105
(dp106
g14
S'write'
p107
sg20
g0
(g21
g2
Ntp108
Rp109
(dp110
g25
Nsg26
I7
sg27
g28
sbsbsg20
g109
sbag0
(g57
g2
Ntp111
Rp112
(dp113
g61
g0
(g62
g2
Ntp114
Rp115
(dp116
g66
(lp117
g0
(g68
g2
Ntp118
Rp119
(dp120
g14
S'__DEBUG_FIFO'
p121
sg20
g0
(g21
g2
Ntp122
Rp123
(dp124
g25
Nsg26
I8
sg27
g28
sbsbag0
(g76
g2
Ntp125
Rp126
(dp127
g80
g0
(g68
g2
Ntp128
Rp129
(dp130
g14
S'var'
p131
sg20
g0
(g21
g2
Ntp132
Rp133
(dp134
g25
Nsg26
I8
sg27
g28
sbsbsg20
g133
sg88
g89
sbag0
(g76
g2
Ntp135
Rp136
(dp137
g80
g0
(g68
g2
Ntp138
Rp139
(dp140
g14
S'var'
p141
sg20
g0
(g21
g2
Ntp142
Rp143
(dp144
g25
Nsg26
I8
sg27
g28
sbsbsg20
g0
(g21
g2
Ntp145
Rp146
(dp147
g25
Nsg26
I8
sg27
g28
sbsg88
S'sizeof'
p148
sbasg20
g123
sbsg14
g0
(g68
g2
Ntp149
Rp150
(dp151
g14
S'write'
p152
sg20
g0
(g21
g2
Ntp153
Rp154
(dp155
g25
Nsg26
I8
sg27
g28
sbsbsg20
g154
sbasg20
g0
(g21
g2
Ntp156
Rp157
(dp158
g25
Nsg26
I0
sg27
g28
sbsb.