ccopy_reg
_reconstructor
p0
(cpycparser.c_ast
Compound
p1
c__builtin__
object
p2
Ntp3
Rp4
(dp5
S'block_items'
p6
(lp7
g0
(cpycparser.c_ast
Decl
p8
g2
Ntp9
Rp10
(dp11
S'funcspec'
p12
(lp13
sS'name'
p14
S'__DEBUG_ID'
p15
sS'quals'
p16
(lp17
sS'storage'
p18
(lp19
sS'coord'
p20
g0
(cpycparser.plyparser
Coord
p21
g2
Ntp22
Rp23
(dp24
S'column'
p25
NsS'line'
p26
I8
sS'file'
p27
S'rubrics/var.c'
p28
sbsS'init'
p29
g0
(cpycparser.c_ast
Cast
p30
g2
Ntp31
Rp32
(dp33
S'to_type'
p34
g0
(cpycparser.c_ast
Typename
p35
g2
Ntp36
Rp37
(dp38
g16
(lp39
sS'type'
p40
g0
(cpycparser.c_ast
TypeDecl
p41
g2
Ntp42
Rp43
(dp44
g16
g39
sg40
g0
(cpycparser.c_ast
IdentifierType
p45
g2
Ntp46
Rp47
(dp48
S'names'
p49
(lp50
S'char'
p51
asg20
g0
(g21
g2
Ntp52
Rp53
(dp54
g25
Nsg26
I8
sg27
g28
sbsbsS'declname'
p55
Nsg20
Nsbsg14
Nsg20
g0
(g21
g2
Ntp56
Rp57
(dp58
g25
Nsg26
I0
sg27
g28
sbsbsg20
g0
(g21
g2
Ntp59
Rp60
(dp61
g25
Nsg26
I8
sg27
g28
sbsS'expr'
p62
g0
(cpycparser.c_ast
Constant
p63
g2
Ntp64
Rp65
(dp66
g40
S'int'
p67
sg20
g0
(g21
g2
Ntp68
Rp69
(dp70
g25
Nsg26
I8
sg27
g28
sbsS'value'
p71
S'0'
p72
sbsbsS'bitsize'
p73
Nsg40
g0
(g41
g2
Ntp74
Rp75
(dp76
g16
g17
sg40
g0
(g45
g2
Ntp77
Rp78
(dp79
g49
(lp80
S'char'
p81
asg20
g0
(g21
g2
Ntp82
Rp83
(dp84
g25
Nsg26
I8
sg27
g28
sbsbsg55
g15
sg20
g23
sbsbag0
(g8
g2
Ntp85
Rp86
(dp87
g12
(lp88
sg14
S'__DEBUG_LVALUE'
p89
sg16
(lp90
sg18
(lp91
sg20
g0
(g21
g2
Ntp92
Rp93
(dp94
g25
Nsg26
I9
sg27
g28
sbsg29
g0
(cpycparser.c_ast
UnaryOp
p95
g2
Ntp96
Rp97
(dp98
g62
g0
(cpycparser.c_ast
ID
p99
g2
Ntp100
Rp101
(dp102
g14
S'LVALUE'
p103
sg20
g0
(g21
g2
Ntp104
Rp105
(dp106
g25
Nsg26
I9
sg27
g28
sbsbsg20
g105
sS'op'
p107
S'&'
p108
sbsg73
Nsg40
g0
(cpycparser.c_ast
PtrDecl
p109
g2
Ntp110
Rp111
(dp112
g16
(lp113
sg40
g0
(g41
g2
Ntp114
Rp115
(dp116
g16
g90
sg40
g0
(g45
g2
Ntp117
Rp118
(dp119
g49
(lp120
S'typeofLVALUE'
p121
asg20
g0
(g21
g2
Ntp122
Rp123
(dp124
g25
Nsg26
I9
sg27
g28
sbsbsg55
g89
sg20
g0
(g21
g2
Ntp125
Rp126
(dp127
g25
Nsg26
I9
sg27
g28
sbsbsg20
g93
sbsbag0
(g8
g2
Ntp128
Rp129
(dp130
g12
(lp131
sg14
S'__DEBUG_RVALUE'
p132
sg16
(lp133
sg18
(lp134
sg20
g0
(g21
g2
Ntp135
Rp136
(dp137
g25
Nsg26
I10
sg27
g28
sbsg29
g0
(g99
g2
Ntp138
Rp139
(dp140
g14
S'RVALUE'
p141
sg20
g0
(g21
g2
Ntp142
Rp143
(dp144
g25
Nsg26
I10
sg27
g28
sbsbsg73
Nsg40
g0
(g41
g2
Ntp145
Rp146
(dp147
g16
g133
sg40
g0
(g45
g2
Ntp148
Rp149
(dp150
g49
(lp151
S'typeofRVALUE'
p152
asg20
g0
(g21
g2
Ntp153
Rp154
(dp155
g25
Nsg26
I10
sg27
g28
sbsbsg55
g132
sg20
g136
sbsbag0
(cpycparser.c_ast
FuncCall
p156
g2
Ntp157
Rp158
(dp159
S'args'
p160
g0
(cpycparser.c_ast
ExprList
p161
g2
Ntp162
Rp163
(dp164
S'exprs'
p165
(lp166
g0
(g99
g2
Ntp167
Rp168
(dp169
g14
S'__DEBUG_FIFO'
p170
sg20
g0
(g21
g2
Ntp171
Rp172
(dp173
g25
Nsg26
I11
sg27
g28
sbsbag0
(g30
g2
Ntp174
Rp175
(dp176
g34
g0
(g35
g2
Ntp177
Rp178
(dp179
g16
(lp180
S'const'
p181
asg40
g0
(g109
g2
Ntp182
Rp183
(dp184
g16
(lp185
sg40
g0
(g41
g2
Ntp186
Rp187
(dp188
g16
g180
sg40
g0
(g45
g2
Ntp189
Rp190
(dp191
g49
(lp192
S'void'
p193
asg20
g0
(g21
g2
Ntp194
Rp195
(dp196
g25
Nsg26
I11
sg27
g28
sbsbsg55
Nsg20
Nsbsg20
g0
(g21
g2
Ntp197
Rp198
(dp199
g25
Nsg26
I11
sg27
g28
sbsbsg14
Nsg20
g0
(g21
g2
Ntp200
Rp201
(dp202
g25
Nsg26
I0
sg27
g28
sbsbsg20
g0
(g21
g2
Ntp203
Rp204
(dp205
g25
Nsg26
I11
sg27
g28
sbsg62
g0
(g95
g2
Ntp206
Rp207
(dp208
g62
g0
(g99
g2
Ntp209
Rp210
(dp211
g14
S'__DEBUG_ID'
p212
sg20
g0
(g21
g2
Ntp213
Rp214
(dp215
g25
Nsg26
I11
sg27
g28
sbsbsg20
g214
sg107
g108
sbsbag0
(g95
g2
Ntp216
Rp217
(dp218
g62
g0
(g99
g2
Ntp219
Rp220
(dp221
g14
S'__DEBUG_ID'
p222
sg20
g0
(g21
g2
Ntp223
Rp224
(dp225
g25
Nsg26
I11
sg27
g28
sbsbsg20
g0
(g21
g2
Ntp226
Rp227
(dp228
g25
Nsg26
I11
sg27
g28
sbsg107
S'sizeof'
p229
sbasg20
g172
sbsg14
g0
(g99
g2
Ntp230
Rp231
(dp232
g14
S'write'
p233
sg20
g0
(g21
g2
Ntp234
Rp235
(dp236
g25
Nsg26
I11
sg27
g28
sbsbsg20
g235
sbag0
(cpycparser.c_ast
Assignment
p237
g2
Ntp238
Rp239
(dp240
S'lvalue'
p241
g0
(g99
g2
Ntp242
Rp243
(dp244
g14
S'__DEBUG_ID'
p245
sg20
g0
(g21
g2
Ntp246
Rp247
(dp248
g25
Nsg26
I12
sg27
g28
sbsbsS'rvalue'
p249
g0
(g95
g2
Ntp250
Rp251
(dp252
g62
g0
(g99
g2
Ntp253
Rp254
(dp255
g14
S'__DEBUG_LVALUE'
p256
sg20
g0
(g21
g2
Ntp257
Rp258
(dp259
g25
Nsg26
I12
sg27
g28
sbsbsg20
g0
(g21
g2
Ntp260
Rp261
(dp262
g25
Nsg26
I12
sg27
g28
sbsg107
S'sizeof'
p263
sbsg20
g247
sg107
S'='
p264
sbag0
(g156
g2
Ntp265
Rp266
(dp267
g160
g0
(g161
g2
Ntp268
Rp269
(dp270
g165
(lp271
g0
(g99
g2
Ntp272
Rp273
(dp274
g14
S'__DEBUG_FIFO'
p275
sg20
g0
(g21
g2
Ntp276
Rp277
(dp278
g25
Nsg26
I13
sg27
g28
sbsbag0
(g30
g2
Ntp279
Rp280
(dp281
g34
g0
(g35
g2
Ntp282
Rp283
(dp284
g16
(lp285
S'const'
p286
asg40
g0
(g109
g2
Ntp287
Rp288
(dp289
g16
(lp290
sg40
g0
(g41
g2
Ntp291
Rp292
(dp293
g16
g285
sg40
g0
(g45
g2
Ntp294
Rp295
(dp296
g49
(lp297
S'void'
p298
asg20
g0
(g21
g2
Ntp299
Rp300
(dp301
g25
Nsg26
I13
sg27
g28
sbsbsg55
Nsg20
Nsbsg20
g0
(g21
g2
Ntp302
Rp303
(dp304
g25
Nsg26
I13
sg27
g28
sbsbsg14
Nsg20
g0
(g21
g2
Ntp305
Rp306
(dp307
g25
Nsg26
I0
sg27
g28
sbsbsg20
g0
(g21
g2
Ntp308
Rp309
(dp310
g25
Nsg26
I13
sg27
g28
sbsg62
g0
(g95
g2
Ntp311
Rp312
(dp313
g62
g0
(g99
g2
Ntp314
Rp315
(dp316
g14
S'__DEBUG_ID'
p317
sg20
g0
(g21
g2
Ntp318
Rp319
(dp320
g25
Nsg26
I13
sg27
g28
sbsbsg20
g319
sg107
g108
sbsbag0
(g95
g2
Ntp321
Rp322
(dp323
g62
g0
(g99
g2
Ntp324
Rp325
(dp326
g14
S'__DEBUG_ID'
p327
sg20
g0
(g21
g2
Ntp328
Rp329
(dp330
g25
Nsg26
I13
sg27
g28
sbsbsg20
g0
(g21
g2
Ntp331
Rp332
(dp333
g25
Nsg26
I13
sg27
g28
sbsg107
S'sizeof'
p334
sbasg20
g277
sbsg14
g0
(g99
g2
Ntp335
Rp336
(dp337
g14
S'write'
p338
sg20
g0
(g21
g2
Ntp339
Rp340
(dp341
g25
Nsg26
I13
sg27
g28
sbsbsg20
g340
sbag0
(g156
g2
Ntp342
Rp343
(dp344
g160
g0
(g161
g2
Ntp345
Rp346
(dp347
g165
(lp348
g0
(g99
g2
Ntp349
Rp350
(dp351
g14
S'__DEBUG_FIFO'
p352
sg20
g0
(g21
g2
Ntp353
Rp354
(dp355
g25
Nsg26
I14
sg27
g28
sbsbag0
(g30
g2
Ntp356
Rp357
(dp358
g34
g0
(g35
g2
Ntp359
Rp360
(dp361
g16
(lp362
S'const'
p363
asg40
g0
(g109
g2
Ntp364
Rp365
(dp366
g16
(lp367
sg40
g0
(g41
g2
Ntp368
Rp369
(dp370
g16
g362
sg40
g0
(g45
g2
Ntp371
Rp372
(dp373
g49
(lp374
S'void'
p375
asg20
g0
(g21
g2
Ntp376
Rp377
(dp378
g25
Nsg26
I14
sg27
g28
sbsbsg55
Nsg20
Nsbsg20
g0
(g21
g2
Ntp379
Rp380
(dp381
g25
Nsg26
I14
sg27
g28
sbsbsg14
Nsg20
g0
(g21
g2
Ntp382
Rp383
(dp384
g25
Nsg26
I0
sg27
g28
sbsbsg20
g0
(g21
g2
Ntp385
Rp386
(dp387
g25
Nsg26
I14
sg27
g28
sbsg62
g0
(g95
g2
Ntp388
Rp389
(dp390
g62
g0
(g99
g2
Ntp391
Rp392
(dp393
g14
S'__DEBUG_LVALUE'
p394
sg20
g0
(g21
g2
Ntp395
Rp396
(dp397
g25
Nsg26
I14
sg27
g28
sbsbsg20
g396
sg107
g108
sbsbag0
(g95
g2
Ntp398
Rp399
(dp400
g62
g0
(g99
g2
Ntp401
Rp402
(dp403
g14
S'__DEBUG_LVALUE'
p404
sg20
g0
(g21
g2
Ntp405
Rp406
(dp407
g25
Nsg26
I14
sg27
g28
sbsbsg20
g0
(g21
g2
Ntp408
Rp409
(dp410
g25
Nsg26
I14
sg27
g28
sbsg107
S'sizeof'
p411
sbasg20
g354
sbsg14
g0
(g99
g2
Ntp412
Rp413
(dp414
g14
S'write'
p415
sg20
g0
(g21
g2
Ntp416
Rp417
(dp418
g25
Nsg26
I14
sg27
g28
sbsbsg20
g417
sbag0
(g237
g2
Ntp419
Rp420
(dp421
g241
g0
(g99
g2
Ntp422
Rp423
(dp424
g14
S'__DEBUG_ID'
p425
sg20
g0
(g21
g2
Ntp426
Rp427
(dp428
g25
Nsg26
I16
sg27
g28
sbsbsg249
g0
(g95
g2
Ntp429
Rp430
(dp431
g62
g0
(g99
g2
Ntp432
Rp433
(dp434
g14
S'__DEBUG_RVALUE'
p435
sg20
g0
(g21
g2
Ntp436
Rp437
(dp438
g25
Nsg26
I16
sg27
g28
sbsbsg20
g0
(g21
g2
Ntp439
Rp440
(dp441
g25
Nsg26
I16
sg27
g28
sbsg107
S'sizeof'
p442
sbsg20
g427
sg107
g264
sbag0
(g156
g2
Ntp443
Rp444
(dp445
g160
g0
(g161
g2
Ntp446
Rp447
(dp448
g165
(lp449
g0
(g99
g2
Ntp450
Rp451
(dp452
g14
S'__DEBUG_FIFO'
p453
sg20
g0
(g21
g2
Ntp454
Rp455
(dp456
g25
Nsg26
I17
sg27
g28
sbsbag0
(g30
g2
Ntp457
Rp458
(dp459
g34
g0
(g35
g2
Ntp460
Rp461
(dp462
g16
(lp463
S'const'
p464
asg40
g0
(g109
g2
Ntp465
Rp466
(dp467
g16
(lp468
sg40
g0
(g41
g2
Ntp469
Rp470
(dp471
g16
g463
sg40
g0
(g45
g2
Ntp472
Rp473
(dp474
g49
(lp475
S'void'
p476
asg20
g0
(g21
g2
Ntp477
Rp478
(dp479
g25
Nsg26
I17
sg27
g28
sbsbsg55
Nsg20
Nsbsg20
g0
(g21
g2
Ntp480
Rp481
(dp482
g25
Nsg26
I17
sg27
g28
sbsbsg14
Nsg20
g0
(g21
g2
Ntp483
Rp484
(dp485
g25
Nsg26
I0
sg27
g28
sbsbsg20
g0
(g21
g2
Ntp486
Rp487
(dp488
g25
Nsg26
I17
sg27
g28
sbsg62
g0
(g95
g2
Ntp489
Rp490
(dp491
g62
g0
(g99
g2
Ntp492
Rp493
(dp494
g14
S'__DEBUG_ID'
p495
sg20
g0
(g21
g2
Ntp496
Rp497
(dp498
g25
Nsg26
I17
sg27
g28
sbsbsg20
g497
sg107
g108
sbsbag0
(g95
g2
Ntp499
Rp500
(dp501
g62
g0
(g99
g2
Ntp502
Rp503
(dp504
g14
S'__DEBUG_ID'
p505
sg20
g0
(g21
g2
Ntp506
Rp507
(dp508
g25
Nsg26
I17
sg27
g28
sbsbsg20
g0
(g21
g2
Ntp509
Rp510
(dp511
g25
Nsg26
I17
sg27
g28
sbsg107
S'sizeof'
p512
sbasg20
g455
sbsg14
g0
(g99
g2
Ntp513
Rp514
(dp515
g14
S'write'
p516
sg20
g0
(g21
g2
Ntp517
Rp518
(dp519
g25
Nsg26
I17
sg27
g28
sbsbsg20
g518
sbag0
(g156
g2
Ntp520
Rp521
(dp522
g160
g0
(g161
g2
Ntp523
Rp524
(dp525
g165
(lp526
g0
(g99
g2
Ntp527
Rp528
(dp529
g14
S'__DEBUG_FIFO'
p530
sg20
g0
(g21
g2
Ntp531
Rp532
(dp533
g25
Nsg26
I18
sg27
g28
sbsbag0
(g30
g2
Ntp534
Rp535
(dp536
g34
g0
(g35
g2
Ntp537
Rp538
(dp539
g16
(lp540
S'const'
p541
asg40
g0
(g109
g2
Ntp542
Rp543
(dp544
g16
(lp545
sg40
g0
(g41
g2
Ntp546
Rp547
(dp548
g16
g540
sg40
g0
(g45
g2
Ntp549
Rp550
(dp551
g49
(lp552
S'void'
p553
asg20
g0
(g21
g2
Ntp554
Rp555
(dp556
g25
Nsg26
I18
sg27
g28
sbsbsg55
Nsg20
Nsbsg20
g0
(g21
g2
Ntp557
Rp558
(dp559
g25
Nsg26
I18
sg27
g28
sbsbsg14
Nsg20
g0
(g21
g2
Ntp560
Rp561
(dp562
g25
Nsg26
I0
sg27
g28
sbsbsg20
g0
(g21
g2
Ntp563
Rp564
(dp565
g25
Nsg26
I18
sg27
g28
sbsg62
g0
(g95
g2
Ntp566
Rp567
(dp568
g62
g0
(g99
g2
Ntp569
Rp570
(dp571
g14
S'__DEBUG_RVALUE'
p572
sg20
g0
(g21
g2
Ntp573
Rp574
(dp575
g25
Nsg26
I18
sg27
g28
sbsbsg20
g574
sg107
g108
sbsbag0
(g95
g2
Ntp576
Rp577
(dp578
g62
g0
(g99
g2
Ntp579
Rp580
(dp581
g14
S'__DEBUG_RVALUE'
p582
sg20
g0
(g21
g2
Ntp583
Rp584
(dp585
g25
Nsg26
I18
sg27
g28
sbsbsg20
g0
(g21
g2
Ntp586
Rp587
(dp588
g25
Nsg26
I18
sg27
g28
sbsg107
S'sizeof'
p589
sbasg20
g532
sbsg14
g0
(g99
g2
Ntp590
Rp591
(dp592
g14
S'write'
p593
sg20
g0
(g21
g2
Ntp594
Rp595
(dp596
g25
Nsg26
I18
sg27
g28
sbsbsg20
g595
sbag0
(g237
g2
Ntp597
Rp598
(dp599
g241
g0
(g95
g2
Ntp600
Rp601
(dp602
g62
g0
(g99
g2
Ntp603
Rp604
(dp605
g14
S'__DEBUG_LVALUE'
p606
sg20
g0
(g21
g2
Ntp607
Rp608
(dp609
g25
Nsg26
I19
sg27
g28
sbsbsg20
g608
sg107
S'*'
p610
sbsg249
g0
(g99
g2
Ntp611
Rp612
(dp613
g14
S'__DEBUG_RVALUE'
p614
sg20
g0
(g21
g2
Ntp615
Rp616
(dp617
g25
Nsg26
I19
sg27
g28
sbsbsg20
g608
sg107
g264
sbag0
(g99
g2
Ntp618
Rp619
(dp620
g14
S'__DEBUG_RVALUE'
p621
sg20
g0
(g21
g2
Ntp622
Rp623
(dp624
g25
Nsg26
I20
sg27
g28
sbsbasg20
g0
(g21
g2
Ntp625
Rp626
(dp627
g25
Nsg26
I0
sg27
g28
sbsb.